target datalayout = "e-m:e-p270:32:32-p271:32:32-p272:64:64-i64:64-i128:128-f80:128-n8:16:32:64-S128"
target triple = "x86_64-pc-linux-gnu"

%struct.camelsrt_t = type { ptr, [10 x i32], [10 x %struct._timestat_t], [10 x [500000 x %struct.nstime_t]] }
%struct._timestat_t = type { i32, i32, i32, %struct.nstime_t, %struct.nstime_t, %struct.nstime_t, double }
%struct.nstime_t = type { i64, i32 }
%struct._GString = type { ptr, i64, i64 }

@.str.2 = private unnamed_addr constant [11 x i8] c"camel,srt,\00", align 1
@.str.3 = private unnamed_addr constant [6 x i8] c"CAMEL\00", align 1
@.str.4 = private unnamed_addr constant [36 x i8] c"Couldn't register camel,srt tap: %s\00", align 1
@gtcap_StatSRT = external global i8, align 1
@gcamel_StatSRT = external global i8, align 1

; Function Attrs: alwaysinline nounwind
define internal ptr @memset.inline(ptr %0, i32 %1, i64 %2) #9 {
  %4 = alloca ptr, align 8
  %5 = alloca i32, align 4
  %6 = alloca i64, align 8
  store ptr %0, ptr %4, align 8
  store i32 %1, ptr %5, align 4
  store i64 %2, ptr %6, align 8
  %7 = load ptr, ptr %4, align 8
  %8 = load i32, ptr %5, align 4
  %9 = load i64, ptr %6, align 8
  %10 = load ptr, ptr %4, align 8
  %11 = call i64 @llvm.objectsize.i64.p0(ptr %10, i1 false, i1 true, i1 true)
  %12 = call ptr @__memset_chk(ptr noundef %7, i32 noundef %8, i64 noundef %9, i64 noundef %11) #13
  ret ptr %12
}

; Function Attrs: nounwind null_pointer_is_valid sspstrong uwtable
define internal void @camelsrt_reset(ptr noundef %0) #6 {
  %2 = alloca ptr, align 8
  %3 = alloca ptr, align 8
  store ptr %0, ptr %2, align 8
  call void @llvm.lifetime.start.p0(i64 8, ptr %3) #13
  %4 = load ptr, ptr %2, align 8
  store ptr %4, ptr %3, align 8
  %5 = load ptr, ptr %3, align 8
  %6 = call ptr @memset.inline(ptr noundef %5, i32 noundef 0, i64 noundef 80000768) #13
  call void @llvm.lifetime.end.p0(i64 8, ptr %3) #13
  ret void
}

; Function Attrs: null_pointer_is_valid sspstrong uwtable
define internal void @camelsrt_init(ptr noundef %0, ptr noundef %1) #0 {
  %3 = alloca ptr, align 8
  %4 = alloca ptr, align 8
  %5 = alloca ptr, align 8
  %6 = alloca ptr, align 8
  %7 = alloca i64, align 8
  %8 = alloca i64, align 8
  %9 = alloca ptr, align 8
  %10 = alloca ptr, align 8
  store ptr %0, ptr %3, align 8
  store ptr %1, ptr %4, align 8
  call void @llvm.lifetime.start.p0(i64 8, ptr %5) #13
  call void @llvm.lifetime.start.p0(i64 8, ptr %6) #13
  call void @llvm.lifetime.start.p0(i64 8, ptr %7) #13
  store i64 1, ptr %7, align 8
  call void @llvm.lifetime.start.p0(i64 8, ptr %8) #13
  store i64 80000768, ptr %8, align 8
  call void @llvm.lifetime.start.p0(i64 8, ptr %9) #13
  %11 = load i64, ptr %8, align 8
  %12 = icmp eq i64 %11, 1
  br i1 %12, label %13, label %16

13:                                               ; preds = %2
  %14 = load i64, ptr %7, align 8
  %15 = call noalias ptr @g_malloc(i64 noundef %14) #14
  store ptr %15, ptr %9, align 8
  br label %37

16:                                               ; preds = %2
  %17 = load i64, ptr %7, align 8
  %18 = call i1 @llvm.is.constant.i64(i64 %17)
  br i1 %18, label %19, label %32

19:                                               ; preds = %16
  %20 = load i64, ptr %8, align 8
  %21 = icmp eq i64 %20, 0
  br i1 %21, label %27, label %22

22:                                               ; preds = %19
  %23 = load i64, ptr %7, align 8
  %24 = load i64, ptr %8, align 8
  %25 = udiv i64 -1, %24
  %26 = icmp ule i64 %23, %25
  br i1 %26, label %27, label %32

27:                                               ; preds = %22, %19
  %28 = load i64, ptr %7, align 8
  %29 = load i64, ptr %8, align 8
  %30 = mul i64 %28, %29
  %31 = call noalias ptr @g_malloc(i64 noundef %30) #14
  store ptr %31, ptr %9, align 8
  br label %36

32:                                               ; preds = %22, %16
  %33 = load i64, ptr %7, align 8
  %34 = load i64, ptr %8, align 8
  %35 = call noalias ptr @g_malloc_n(i64 noundef %33, i64 noundef %34) #15
  store ptr %35, ptr %9, align 8
  br label %36

36:                                               ; preds = %32, %27
  br label %37

37:                                               ; preds = %36, %13
  %38 = load ptr, ptr %9, align 8
  store ptr %38, ptr %10, align 8
  call void @llvm.lifetime.end.p0(i64 8, ptr %9) #13
  call void @llvm.lifetime.end.p0(i64 8, ptr %8) #13
  call void @llvm.lifetime.end.p0(i64 8, ptr %7) #13
  %39 = load ptr, ptr %10, align 8
  store ptr %39, ptr %5, align 8
  %40 = load ptr, ptr %5, align 8
  call void @camelsrt_reset(ptr noundef %40)
  %41 = load ptr, ptr %3, align 8
  %42 = call i32 @strncmp(ptr noundef %41, ptr noundef @.str.2, i64 noundef 10) #16
  %43 = icmp ne i32 %42, 0
  br i1 %43, label %50, label %44

44:                                               ; preds = %37
  %45 = load ptr, ptr %3, align 8
  %46 = getelementptr i8, ptr %45, i64 10
  %47 = call noalias ptr @g_strdup(ptr noundef %46)
  %48 = load ptr, ptr %5, align 8
  %49 = getelementptr inbounds nuw %struct.camelsrt_t, ptr %48, i32 0, i32 0
  store ptr %47, ptr %49, align 8
  br label %53

50:                                               ; preds = %37
  %51 = load ptr, ptr %5, align 8
  %52 = getelementptr inbounds nuw %struct.camelsrt_t, ptr %51, i32 0, i32 0
  store ptr null, ptr %52, align 8
  br label %53

53:                                               ; preds = %50, %44
  %54 = load ptr, ptr %5, align 8
  %55 = load ptr, ptr %5, align 8
  %56 = getelementptr inbounds nuw %struct.camelsrt_t, ptr %55, i32 0, i32 0
  %57 = load ptr, ptr %56, align 8
  %58 = call ptr @register_tap_listener(ptr noundef @.str.3, ptr noundef %54, ptr noundef %57, i32 noundef 0, ptr noundef null, ptr noundef @camelsrt_packet, ptr noundef @camelsrt_draw, ptr noundef null)
  store ptr %58, ptr %6, align 8
  %59 = load ptr, ptr %6, align 8
  %60 = icmp ne ptr %59, null
  br i1 %60, label %61, label %71

61:                                               ; preds = %53
  %62 = load ptr, ptr %5, align 8
  %63 = getelementptr inbounds nuw %struct.camelsrt_t, ptr %62, i32 0, i32 0
  %64 = load ptr, ptr %63, align 8
  call void @g_free(ptr noundef %64)
  %65 = load ptr, ptr %5, align 8
  call void @g_free(ptr noundef %65)
  %66 = load ptr, ptr %6, align 8
  %67 = getelementptr inbounds nuw %struct._GString, ptr %66, i32 0, i32 0
  %68 = load ptr, ptr %67, align 8
  call void (ptr, ...) @cmdarg_err(ptr noundef @.str.4, ptr noundef %68)
  %69 = load ptr, ptr %6, align 8
  %70 = call ptr @g_string_free(ptr noundef %69, i32 noundef 1)
  call void @exit(i32 noundef 1) #17
  unreachable

71:                                               ; preds = %53
  store i8 1, ptr @gtcap_StatSRT, align 1
  store i8 1, ptr @gcamel_StatSRT, align 1
  call void @llvm.lifetime.end.p0(i64 8, ptr %6) #13
  call void @llvm.lifetime.end.p0(i64 8, ptr %5) #13
  ret void
}