; Function Attrs: null_pointer_is_valid sspstrong uwtable
define internal void @camelsrt_init(ptr noundef %0, ptr readnone captures(none) %1) #0 {
  %3 = tail call noalias dereferenceable_or_null(80000768) ptr @g_malloc(i64 noundef 80000768) #9
  tail call void @llvm.memset.p0.i64(ptr noundef align 1 dereferenceable(80000768) %3, i8 noundef 0, i64 noundef 80000768, i1 noundef false) #10
  %4 = tail call i32 @strncmp(ptr noundef %0, ptr noundef nonnull dereferenceable(11) @.str.2, i64 noundef 10) #11
  %.not = icmp eq i32 %4, 0
  br i1 %.not, label %5, label %8

5:                                                ; preds = %2
  %6 = getelementptr i8, ptr %0, i64 10
  %7 = tail call noalias ptr @g_strdup(ptr noundef %6)
  br label %8

8:                                                ; preds = %2, %5
  %storemerge = phi ptr [ %7, %5 ], [ null, %2 ]
  store ptr %storemerge, ptr %3, align 8
  %9 = tail call ptr @register_tap_listener(ptr noundef nonnull @.str.3, ptr noundef %3, ptr noundef %storemerge, i32 noundef 0, ptr noundef null, ptr noundef nonnull @camelsrt_packet, ptr noundef nonnull @camelsrt_draw, ptr noundef null)
  %.not24 = icmp eq ptr %9, null
  br i1 %.not24, label %14, label %10

10:                                               ; preds = %8
  %11 = load ptr, ptr %3, align 8
  tail call void @g_free(ptr noundef %11)
  tail call void @g_free(ptr noundef %3)
  %12 = load ptr, ptr %9, align 8
  tail call void (ptr, ...) @cmdarg_err(ptr noundef nonnull @.str.4, ptr noundef %12)
  %13 = tail call ptr @g_string_free(ptr noundef nonnull %9, i32 noundef 1)
  tail call void @exit(i32 noundef 1) #12
  unreachable

14:                                               ; preds = %8
  store i8 1, ptr @gtcap_StatSRT, align 1
  store i8 1, ptr @gcamel_StatSRT, align 1
  ret void
}